target datalayout = "e-m:e-p270:32:32-p271:32:32-p272:64:64-i64:64-i128:128-f80:128-n8:16:32:64-S128"
target triple = "x86_64-pc-linux-gnu"

%struct._object = type { %union.anon, ptr }
%union.anon = type { i64 }
%struct.PyVarObject = type { %struct._object, i64 }
%struct._typeobject = type { %struct.PyVarObject, ptr, i64, i64, ptr, i64, ptr, ptr, ptr, ptr, ptr, ptr, ptr, ptr, ptr, ptr, ptr, ptr, ptr, i64, ptr, ptr, ptr, ptr, i64, ptr, ptr, ptr, ptr, ptr, ptr, ptr, ptr, ptr, i64, ptr, ptr, ptr, ptr, ptr, ptr, ptr, ptr, ptr, ptr, ptr, i32, ptr, ptr, i8, i16 }
%struct.anon = type { i32, i32 }

; Function Attrs: alwaysinline nounwind uwtable
define internal i32 @_Py_IsImmortal(ptr noundef %0) #4 {
  %2 = alloca ptr, align 8
  store ptr %0, ptr %2, align 8, !tbaa !4
  %3 = load ptr, ptr %2, align 8, !tbaa !4
  %4 = getelementptr inbounds nuw %struct._object, ptr %3, i32 0, i32 0
  %5 = getelementptr inbounds nuw %struct.anon, ptr %4, i32 0, i32 0
  %6 = load i32, ptr %5, align 8, !tbaa !32
  %7 = icmp slt i32 %6, 0
  %8 = zext i1 %7 to i32
  ret i32 %8
}

; Function Attrs: alwaysinline nounwind uwtable
define internal void @Py_DECREF(ptr noundef %0) #4 {
  %2 = alloca ptr, align 8
  store ptr %0, ptr %2, align 8, !tbaa !4
  %3 = load ptr, ptr %2, align 8, !tbaa !4
  %4 = call i32 @_Py_IsImmortal(ptr noundef %3)
  %5 = icmp ne i32 %4, 0
  br i1 %5, label %6, label %7

6:                                                ; preds = %1
  br label %16

7:                                                ; preds = %1
  %8 = load ptr, ptr %2, align 8, !tbaa !4
  %9 = getelementptr inbounds nuw %struct._object, ptr %8, i32 0, i32 0
  %10 = getelementptr inbounds nuw %struct.anon, ptr %9, i32 0, i32 0
  %11 = load i32, ptr %10, align 8, !tbaa !32
  %12 = add i32 %11, -1
  store i32 %12, ptr %10, align 8, !tbaa !32
  %13 = icmp eq i32 %12, 0
  br i1 %13, label %14, label %16

14:                                               ; preds = %7
  %15 = load ptr, ptr %2, align 8, !tbaa !4
  call void @_Py_Dealloc(ptr noundef %15)
  br label %16

16:                                               ; preds = %6, %14, %7
  ret void
}

; Function Attrs: inlinehint nounwind uwtable
define internal ptr @_Py_TYPE(ptr noundef %0) #3 {
  %2 = alloca ptr, align 8
  store ptr %0, ptr %2, align 8, !tbaa !4
  %3 = load ptr, ptr %2, align 8, !tbaa !4
  %4 = getelementptr inbounds nuw %struct._object, ptr %3, i32 0, i32 1
  %5 = load ptr, ptr %4, align 8, !tbaa !129
  ret ptr %5
}

; Function Attrs: nounwind uwtable
define internal void @placeholder_dealloc(ptr noundef %0) #0 {
  %2 = alloca ptr, align 8
  %3 = alloca ptr, align 8
  store ptr %0, ptr %2, align 8, !tbaa !4
  %4 = load ptr, ptr %2, align 8, !tbaa !4
  call void @PyObject_GC_UnTrack(ptr noundef %4)
  call void @llvm.lifetime.start.p0(i64 8, ptr %3) #8
  %5 = load ptr, ptr %2, align 8, !tbaa !4
  %6 = call ptr @_Py_TYPE(ptr noundef %5)
  store ptr %6, ptr %3, align 8, !tbaa !26
  %7 = load ptr, ptr %3, align 8, !tbaa !26
  %8 = getelementptr inbounds nuw %struct._typeobject, ptr %7, i32 0, i32 38
  %9 = load ptr, ptr %8, align 8, !tbaa !131
  %10 = load ptr, ptr %2, align 8, !tbaa !4
  call void %9(ptr noundef %10)
  %11 = load ptr, ptr %3, align 8, !tbaa !26
  call void @Py_DECREF(ptr noundef %11)
  call void @llvm.lifetime.end.p0(i64 8, ptr %3) #8
  ret void
}